target datalayout = "e-m:e-p270:32:32-p271:32:32-p272:64:64-i64:64-i128:128-f80:128-n8:16:32:64-S128"
target triple = "x86_64-pc-linux-gnu"

%"struct.duckdb::roaring::RunContainerRLEPair" = type { i16, i16 }
%"struct.duckdb::roaring::ContainerScanState" = type { ptr, i64, i64, i64 }
%"struct.duckdb::roaring::ContainerSegmentScan" = type <{ ptr, i8, i8, [6 x i8] }>
%"struct.duckdb::roaring::RunContainerScanState" = type { %"struct.duckdb::roaring::ContainerScanState", %"struct.duckdb::roaring::RunContainerRLEPair", i8, i64, i64, ptr }
%"struct.duckdb::roaring::CompressedRunContainerScanState" = type { %"struct.duckdb::roaring::RunContainerScanState", ptr, %"struct.duckdb::roaring::ContainerSegmentScan" }

; Function Attrs: mustprogress nounwind uwtable
define noundef zeroext i16 @_ZN6duckdb7roaring20ContainerSegmentScanppEi(ptr noundef nonnull align 8 dereferenceable(10) %0, i32 noundef %1) #2 align 2 {
  %3 = alloca ptr, align 8
  %4 = alloca i32, align 4
  %5 = alloca i16, align 2
  store ptr %0, ptr %3, align 8, !tbaa !441
  store i32 %1, ptr %4, align 4, !tbaa !350
  %6 = load ptr, ptr %3, align 8
  br label %7

7:                                                ; preds = %27, %2
  %8 = getelementptr inbounds nuw %"struct.duckdb::roaring::ContainerSegmentScan", ptr %6, i32 0, i32 1
  %9 = load i8, ptr %8, align 8, !tbaa !445
  %10 = zext i8 %9 to i32
  %11 = icmp slt i32 %10, 8
  br i1 %11, label %12, label %25

12:                                               ; preds = %7
  %13 = getelementptr inbounds nuw %"struct.duckdb::roaring::ContainerSegmentScan", ptr %6, i32 0, i32 2
  %14 = load i8, ptr %13, align 1, !tbaa !446
  %15 = zext i8 %14 to i32
  %16 = getelementptr inbounds nuw %"struct.duckdb::roaring::ContainerSegmentScan", ptr %6, i32 0, i32 0
  %17 = load ptr, ptr %16, align 8, !tbaa !443
  %18 = getelementptr inbounds nuw %"struct.duckdb::roaring::ContainerSegmentScan", ptr %6, i32 0, i32 1
  %19 = load i8, ptr %18, align 8, !tbaa !445
  %20 = zext i8 %19 to i64
  %21 = getelementptr inbounds nuw i8, ptr %17, i64 %20
  %22 = load i8, ptr %21, align 1, !tbaa !292
  %23 = zext i8 %22 to i32
  %24 = icmp sge i32 %15, %23
  br label %25

25:                                               ; preds = %12, %7
  %26 = phi i1 [ false, %7 ], [ %24, %12 ]
  br i1 %26, label %27, label %32

27:                                               ; preds = %25
  %28 = getelementptr inbounds nuw %"struct.duckdb::roaring::ContainerSegmentScan", ptr %6, i32 0, i32 2
  store i8 0, ptr %28, align 1, !tbaa !446
  %29 = getelementptr inbounds nuw %"struct.duckdb::roaring::ContainerSegmentScan", ptr %6, i32 0, i32 1
  %30 = load i8, ptr %29, align 8, !tbaa !445
  %31 = add i8 %30, 1
  store i8 %31, ptr %29, align 8, !tbaa !445
  br label %7, !llvm.loop !447

32:                                               ; preds = %25
  %33 = getelementptr inbounds nuw %"struct.duckdb::roaring::ContainerSegmentScan", ptr %6, i32 0, i32 2
  %34 = load i8, ptr %33, align 1, !tbaa !446
  %35 = add i8 %34, 1
  store i8 %35, ptr %33, align 1, !tbaa !446
  %36 = getelementptr inbounds nuw %"struct.duckdb::roaring::ContainerSegmentScan", ptr %6, i32 0, i32 1
  %37 = load i8, ptr %36, align 8, !tbaa !445
  %38 = zext i8 %37 to i32
  %39 = icmp slt i32 %38, 8
  br i1 %39, label %40, label %41

40:                                               ; preds = %32
  br label %41

41:                                               ; preds = %40, %32
  call void @llvm.lifetime.start.p0(i64 2, ptr %5) #19
  %42 = getelementptr inbounds nuw %"struct.duckdb::roaring::ContainerSegmentScan", ptr %6, i32 0, i32 1
  %43 = load i8, ptr %42, align 8, !tbaa !445
  %44 = zext i8 %43 to i16
  %45 = zext i16 %44 to i32
  %46 = mul nsw i32 %45, 256
  %47 = trunc i32 %46 to i16
  store i16 %47, ptr %5, align 2, !tbaa !137
  %48 = load i16, ptr %5, align 2, !tbaa !137
  call void @llvm.lifetime.end.p0(i64 2, ptr %5) #19
  ret i16 %48
}

; Function Attrs: mustprogress nounwind uwtable
define void @_ZN6duckdb7roaring31CompressedRunContainerScanState11LoadNextRunEv(ptr noundef nonnull align 8 dereferenceable(88) %0) unnamed_addr #2 align 2 {
  %2 = alloca ptr, align 8
  %3 = alloca i16, align 2
  %4 = alloca i16, align 2
  %5 = alloca %"struct.duckdb::roaring::RunContainerRLEPair", align 2
  store ptr %0, ptr %2, align 8, !tbaa !461
  %6 = load ptr, ptr %2, align 8
  %7 = getelementptr inbounds nuw %"struct.duckdb::roaring::RunContainerScanState", ptr %6, i32 0, i32 3
  %8 = load i64, ptr %7, align 8, !tbaa !452
  %9 = getelementptr inbounds nuw %"struct.duckdb::roaring::RunContainerScanState", ptr %6, i32 0, i32 4
  %10 = load i64, ptr %9, align 8, !tbaa !453
  %11 = icmp uge i64 %8, %10
  br i1 %11, label %12, label %14

12:                                               ; preds = %1
  %13 = getelementptr inbounds nuw %"struct.duckdb::roaring::RunContainerScanState", ptr %6, i32 0, i32 2
  store i8 1, ptr %13, align 4, !tbaa !450
  br label %59

14:                                               ; preds = %1
  call void @llvm.lifetime.start.p0(i64 2, ptr %3) #19
  %15 = getelementptr inbounds nuw %"struct.duckdb::roaring::CompressedRunContainerScanState", ptr %6, i32 0, i32 2
  %16 = call noundef zeroext i16 @_ZN6duckdb7roaring20ContainerSegmentScanppEi(ptr noundef nonnull align 8 dereferenceable(10) %15, i32 noundef 0)
  store i16 %16, ptr %3, align 2, !tbaa !137
  %17 = getelementptr inbounds nuw %"struct.duckdb::roaring::RunContainerScanState", ptr %6, i32 0, i32 5
  %18 = load ptr, ptr %17, align 8, !tbaa !454
  %19 = getelementptr inbounds nuw %"struct.duckdb::roaring::RunContainerScanState", ptr %6, i32 0, i32 3
  %20 = load i64, ptr %19, align 8, !tbaa !452
  %21 = mul i64 %20, 2
  %22 = add i64 %21, 0
  %23 = getelementptr inbounds nuw i8, ptr %18, i64 %22
  %24 = load i8, ptr %23, align 1, !tbaa !292
  %25 = zext i8 %24 to i32
  %26 = load i16, ptr %3, align 2, !tbaa !137
  %27 = zext i16 %26 to i32
  %28 = add nsw i32 %27, %25
  %29 = trunc i32 %28 to i16
  store i16 %29, ptr %3, align 2, !tbaa !137
  call void @llvm.lifetime.start.p0(i64 2, ptr %4) #19
  %30 = getelementptr inbounds nuw %"struct.duckdb::roaring::CompressedRunContainerScanState", ptr %6, i32 0, i32 2
  %31 = call noundef zeroext i16 @_ZN6duckdb7roaring20ContainerSegmentScanppEi(ptr noundef nonnull align 8 dereferenceable(10) %30, i32 noundef 0)
  store i16 %31, ptr %4, align 2, !tbaa !137
  %32 = getelementptr inbounds nuw %"struct.duckdb::roaring::RunContainerScanState", ptr %6, i32 0, i32 5
  %33 = load ptr, ptr %32, align 8, !tbaa !454
  %34 = getelementptr inbounds nuw %"struct.duckdb::roaring::RunContainerScanState", ptr %6, i32 0, i32 3
  %35 = load i64, ptr %34, align 8, !tbaa !452
  %36 = mul i64 %35, 2
  %37 = add i64 %36, 1
  %38 = getelementptr inbounds nuw i8, ptr %33, i64 %37
  %39 = load i8, ptr %38, align 1, !tbaa !292
  %40 = zext i8 %39 to i32
  %41 = load i16, ptr %4, align 2, !tbaa !137
  %42 = zext i16 %41 to i32
  %43 = add nsw i32 %42, %40
  %44 = trunc i32 %43 to i16
  store i16 %44, ptr %4, align 2, !tbaa !137
  call void @llvm.lifetime.start.p0(i64 4, ptr %5) #19
  %45 = getelementptr inbounds nuw %"struct.duckdb::roaring::RunContainerRLEPair", ptr %5, i32 0, i32 0
  %46 = load i16, ptr %3, align 2, !tbaa !137
  store i16 %46, ptr %45, align 2, !tbaa !360
  %47 = getelementptr inbounds nuw %"struct.duckdb::roaring::RunContainerRLEPair", ptr %5, i32 0, i32 1
  %48 = load i16, ptr %4, align 2, !tbaa !137
  %49 = zext i16 %48 to i32
  %50 = sub nsw i32 %49, 1
  %51 = load i16, ptr %3, align 2, !tbaa !137
  %52 = zext i16 %51 to i32
  %53 = sub nsw i32 %50, %52
  %54 = trunc i32 %53 to i16
  store i16 %54, ptr %47, align 2, !tbaa !362
  %55 = getelementptr inbounds nuw %"struct.duckdb::roaring::RunContainerScanState", ptr %6, i32 0, i32 1
  call void @llvm.memcpy.p0.p0.i64(ptr align 8 %55, ptr align 2 %5, i64 4, i1 false), !tbaa.struct !460
  call void @llvm.lifetime.end.p0(i64 4, ptr %5) #19
  %56 = getelementptr inbounds nuw %"struct.duckdb::roaring::RunContainerScanState", ptr %6, i32 0, i32 3
  %57 = load i64, ptr %56, align 8, !tbaa !452
  %58 = add i64 %57, 1
  store i64 %58, ptr %56, align 8, !tbaa !452
  call void @llvm.lifetime.end.p0(i64 2, ptr %4) #19
  call void @llvm.lifetime.end.p0(i64 2, ptr %3) #19
  br label %59

59:                                               ; preds = %14, %12
  ret void
}