; Function Attrs: mustprogress nofree norecurse nosync nounwind memory(read, argmem: readwrite, inaccessiblemem: none) uwtable
define void @_ZN6duckdb7roaring31CompressedRunContainerScanState11LoadNextRunEv(ptr noundef nonnull align 8 captures(none) dereferenceable(88) %0) unnamed_addr #18 align 2 {
  %2 = getelementptr inbounds nuw i8, ptr %0, i64 40
  %3 = load i64, ptr %2, align 8, !tbaa !424
  %4 = getelementptr inbounds nuw i8, ptr %0, i64 48
  %5 = load i64, ptr %4, align 8, !tbaa !425
  %.not = icmp ult i64 %3, %5
  br i1 %.not, label %8, label %6

6:                                                ; preds = %1
  %7 = getelementptr inbounds nuw i8, ptr %0, i64 36
  store i8 1, ptr %7, align 4, !tbaa !422
  br label %56

8:                                                ; preds = %1
  %9 = getelementptr inbounds nuw i8, ptr %0, i64 72
  %10 = getelementptr inbounds nuw i8, ptr %0, i64 81
  %11 = getelementptr inbounds nuw i8, ptr %0, i64 80
  %.promoted.i = load i8, ptr %11, align 8, !tbaa !419
  %12 = icmp ult i8 %.promoted.i, 8
  %.pre.i = load i8, ptr %10, align 1, !tbaa !420
  br i1 %12, label %.lr.ph.i, label %_ZN6duckdb7roaring20ContainerSegmentScanppEi.exit

.lr.ph.i:                                         ; preds = %8
  %13 = load ptr, ptr %9, align 8, !tbaa !418
  %14 = zext nneg i8 %.promoted.i to i64
  %15 = getelementptr inbounds nuw i8, ptr %13, i64 %14
  %16 = load i8, ptr %15, align 1, !tbaa !295
  %.not.i39 = icmp ult i8 %.pre.i, %16
  br i1 %.not.i39, label %_ZN6duckdb7roaring20ContainerSegmentScanppEi.exit, label %.lr.ph

17:                                               ; preds = %.lr.ph
  %18 = getelementptr inbounds nuw i8, ptr %13, i64 %indvars.iv.next.i
  %19 = load i8, ptr %18, align 1, !tbaa !295
  %.not.i.not = icmp eq i8 %19, 0
  br i1 %.not.i.not, label %.lr.ph, label %..critedge.loopexit.split.loop.exit5.i_crit_edge, !llvm.loop !421

.lr.ph:                                           ; preds = %.lr.ph.i, %17
  %indvars.iv.i40 = phi i64 [ %indvars.iv.next.i, %17 ], [ %14, %.lr.ph.i ]
  store i8 0, ptr %10, align 1, !tbaa !420
  %indvars.iv.next.i = add nuw nsw i64 %indvars.iv.i40, 1
  %20 = trunc i64 %indvars.iv.next.i to i8
  store i8 %20, ptr %11, align 8, !tbaa !419
  %exitcond.not.i = icmp eq i8 %20, 8
  br i1 %exitcond.not.i, label %_ZN6duckdb7roaring20ContainerSegmentScanppEi.exit, label %17, !llvm.loop !421

..critedge.loopexit.split.loop.exit5.i_crit_edge: ; preds = %17
  %21 = trunc nuw nsw i64 %indvars.iv.next.i to i8
  br label %_ZN6duckdb7roaring20ContainerSegmentScanppEi.exit

_ZN6duckdb7roaring20ContainerSegmentScanppEi.exit: ; preds = %.lr.ph, %.lr.ph.i, %..critedge.loopexit.split.loop.exit5.i_crit_edge, %8
  %.promoted.i5 = phi i8 [ %.promoted.i, %8 ], [ %20, %..critedge.loopexit.split.loop.exit5.i_crit_edge ], [ %.promoted.i, %.lr.ph.i ], [ 8, %.lr.ph ]
  %22 = phi i8 [ %.pre.i, %8 ], [ 0, %..critedge.loopexit.split.loop.exit5.i_crit_edge ], [ %.pre.i, %.lr.ph.i ], [ 0, %.lr.ph ]
  %.lcssa.i = phi i8 [ %.promoted.i, %8 ], [ %21, %..critedge.loopexit.split.loop.exit5.i_crit_edge ], [ %.promoted.i, %.lr.ph.i ], [ 8, %.lr.ph ]
  %23 = add i8 %22, 1
  store i8 %23, ptr %10, align 1, !tbaa !420
  %24 = zext i8 %.lcssa.i to i16
  %25 = shl nuw i16 %24, 8
  %26 = getelementptr inbounds nuw i8, ptr %0, i64 56
  %27 = load ptr, ptr %26, align 8, !tbaa !426
  %28 = shl i64 %3, 1
  %29 = getelementptr inbounds nuw i8, ptr %27, i64 %28
  %30 = load i8, ptr %29, align 1, !tbaa !295
  %31 = zext i8 %30 to i16
  %32 = or disjoint i16 %25, %31
  %33 = icmp ult i8 %.promoted.i5, 8
  br i1 %33, label %.lr.ph.i8, label %_ZN6duckdb7roaring20ContainerSegmentScanppEi.exit14

.lr.ph.i8:                                        ; preds = %_ZN6duckdb7roaring20ContainerSegmentScanppEi.exit
  %34 = load ptr, ptr %9, align 8, !tbaa !418
  %35 = zext nneg i8 %.promoted.i5 to i64
  br label %36

36:                                               ; preds = %40, %.lr.ph.i8
  %indvars.iv.i9 = phi i64 [ %35, %.lr.ph.i8 ], [ %indvars.iv.next.i11, %40 ]
  %37 = phi i8 [ %23, %.lr.ph.i8 ], [ 0, %40 ]
  %38 = getelementptr inbounds nuw i8, ptr %34, i64 %indvars.iv.i9
  %39 = load i8, ptr %38, align 1, !tbaa !295
  %.not.i10 = icmp ult i8 %37, %39
  br i1 %.not.i10, label %.critedge.loopexit.split.loop.exit5.i13, label %40

40:                                               ; preds = %36
  store i8 0, ptr %10, align 1, !tbaa !420
  %indvars.iv.next.i11 = add nuw nsw i64 %indvars.iv.i9, 1
  %41 = trunc i64 %indvars.iv.next.i11 to i8
  store i8 %41, ptr %11, align 8, !tbaa !419
  %exitcond.not.i12 = icmp eq i8 %41, 8
  br i1 %exitcond.not.i12, label %_ZN6duckdb7roaring20ContainerSegmentScanppEi.exit14, label %36, !llvm.loop !421

.critedge.loopexit.split.loop.exit5.i13:          ; preds = %36
  %42 = trunc nuw nsw i64 %indvars.iv.i9 to i8
  br label %_ZN6duckdb7roaring20ContainerSegmentScanppEi.exit14

_ZN6duckdb7roaring20ContainerSegmentScanppEi.exit14: ; preds = %40, %_ZN6duckdb7roaring20ContainerSegmentScanppEi.exit, %.critedge.loopexit.split.loop.exit5.i13
  %43 = phi i8 [ %23, %_ZN6duckdb7roaring20ContainerSegmentScanppEi.exit ], [ %37, %.critedge.loopexit.split.loop.exit5.i13 ], [ 0, %40 ]
  %.lcssa.i7 = phi i8 [ %.promoted.i5, %_ZN6duckdb7roaring20ContainerSegmentScanppEi.exit ], [ %42, %.critedge.loopexit.split.loop.exit5.i13 ], [ 8, %40 ]
  %44 = add i8 %43, 1
  store i8 %44, ptr %10, align 1, !tbaa !420
  %45 = zext i8 %.lcssa.i7 to i16
  %46 = shl nuw i16 %45, 8
  %47 = or disjoint i64 %28, 1
  %48 = getelementptr inbounds nuw i8, ptr %27, i64 %47
  %49 = load i8, ptr %48, align 1, !tbaa !295
  %50 = zext i8 %49 to i16
  %51 = xor i16 %32, -1
  %52 = add i16 %46, %51
  %53 = add i16 %52, %50
  %54 = getelementptr inbounds nuw i8, ptr %0, i64 32
  store i16 %32, ptr %54, align 8, !tbaa !334
  %.sroa.4.0..sroa_idx = getelementptr inbounds nuw i8, ptr %0, i64 34
  store i16 %53, ptr %.sroa.4.0..sroa_idx, align 2, !tbaa !334
  %55 = add i64 %3, 1
  store i64 %55, ptr %2, align 8, !tbaa !424
  br label %56

56:                                               ; preds = %_ZN6duckdb7roaring20ContainerSegmentScanppEi.exit14, %6
  ret void
}